; Function Attrs: mustprogress uwtable
define noundef zeroext i1 @_ZNK7rocksdb22SecondaryIndexIterator5ValidEv(ptr noundef nonnull readonly align 8 captures(none) dereferenceable(64) %0) local_unnamed_addr #1 align 2 personality ptr @__gxx_personality_v0 {
  %2 = getelementptr inbounds nuw i8, ptr %0, i64 16
  %3 = load i8, ptr %2, align 8, !tbaa !37
  %4 = icmp eq i8 %3, 0
  br i1 %4, label %5, label %_ZNK7rocksdb5Slice11starts_withERKS0_.exit

5:                                                ; preds = %1
  %6 = getelementptr inbounds nuw i8, ptr %0, i64 8
  %7 = load ptr, ptr %6, align 8, !tbaa !32
  %8 = load ptr, ptr %7, align 8, !tbaa !38
  %9 = getelementptr inbounds nuw i8, ptr %8, i64 16
  %10 = load ptr, ptr %9, align 8
  %11 = tail call noundef zeroext i1 %10(ptr noundef nonnull align 8 dereferenceable(40) %7)
  br i1 %11, label %12, label %_ZNK7rocksdb5Slice11starts_withERKS0_.exit

12:                                               ; preds = %5
  %13 = load ptr, ptr %6, align 8, !tbaa !32
  %14 = load ptr, ptr %13, align 8, !tbaa !38
  %15 = getelementptr inbounds nuw i8, ptr %14, i64 96
  %16 = load ptr, ptr %15, align 8
  %17 = tail call { ptr, i64 } %16(ptr noundef nonnull align 8 dereferenceable(40) %13)
  %18 = extractvalue { ptr, i64 } %17, 1
  %19 = getelementptr inbounds nuw i8, ptr %0, i64 40
  %20 = load i64, ptr %19, align 8, !tbaa !35
  %.not.i = icmp ult i64 %18, %20
  br i1 %.not.i, label %_ZNK7rocksdb5Slice11starts_withERKS0_.exit, label %21

21:                                               ; preds = %12
  %22 = getelementptr inbounds nuw i8, ptr %0, i64 32
  %23 = load ptr, ptr %22, align 8, !tbaa !40
  %24 = extractvalue { ptr, i64 } %17, 0
  %bcmp.i = tail call i32 @bcmp(ptr %24, ptr %23, i64 %20)
  %25 = icmp eq i32 %bcmp.i, 0
  br label %_ZNK7rocksdb5Slice11starts_withERKS0_.exit

_ZNK7rocksdb5Slice11starts_withERKS0_.exit:       ; preds = %21, %12, %5, %1
  %26 = phi i1 [ false, %5 ], [ false, %1 ], [ false, %12 ], [ %25, %21 ]
  ret i1 %26
}